; Function Attrs: mustprogress uwtable
define void @_ZNK20FilterFunctionPlugin10filterNameEi(ptr dead_on_unwind noalias nocapture writable writeonly sret(%class.QString) align 8 %0, ptr nocapture nonnull readnone align 8 %1, i32 noundef %2) unnamed_addr #9 align 2 {
  switch i32 %2, label %40 [
    i32 0, label %4
    i32 1, label %6
    i32 2, label %8
    i32 5, label %10
    i32 10, label %12
    i32 6, label %14
    i32 9, label %16
    i32 3, label %18
    i32 4, label %20
    i32 7, label %22
    i32 8, label %24
    i32 11, label %26
    i32 12, label %28
    i32 13, label %30
    i32 14, label %32
    i32 15, label %34
    i32 17, label %36
    i32 16, label %38
  ]

4:                                                ; preds = %3
  %5 = tail call noundef ptr @_ZN7QString16fromAscii_helperEPKci(ptr noundef nonnull @.str.19, i32 noundef 28)
  br label %40

6:                                                ; preds = %3
  %7 = tail call noundef ptr @_ZN7QString16fromAscii_helperEPKci(ptr noundef nonnull @.str.20, i32 noundef 26)
  br label %40

8:                                                ; preds = %3
  %9 = tail call noundef ptr @_ZN7QString16fromAscii_helperEPKci(ptr noundef nonnull @.str.21, i32 noundef 29)
  br label %40

10:                                               ; preds = %3
  %11 = tail call noundef ptr @_ZN7QString16fromAscii_helperEPKci(ptr noundef nonnull @.str.22, i32 noundef 23)
  br label %40

12:                                               ; preds = %3
  %13 = tail call noundef ptr @_ZN7QString16fromAscii_helperEPKci(ptr noundef nonnull @.str.23, i32 noundef 25)
  br label %40

14:                                               ; preds = %3
  %15 = tail call noundef ptr @_ZN7QString16fromAscii_helperEPKci(ptr noundef nonnull @.str.24, i32 noundef 25)
  br label %40

16:                                               ; preds = %3
  %17 = tail call noundef ptr @_ZN7QString16fromAscii_helperEPKci(ptr noundef nonnull @.str.25, i32 noundef 27)
  br label %40

18:                                               ; preds = %3
  %19 = tail call noundef ptr @_ZN7QString16fromAscii_helperEPKci(ptr noundef nonnull @.str.26, i32 noundef 27)
  br label %40

20:                                               ; preds = %3
  %21 = tail call noundef ptr @_ZN7QString16fromAscii_helperEPKci(ptr noundef nonnull @.str.27, i32 noundef 26)
  br label %40

22:                                               ; preds = %3
  %23 = tail call noundef ptr @_ZN7QString16fromAscii_helperEPKci(ptr noundef nonnull @.str.28, i32 noundef 26)
  br label %40

24:                                               ; preds = %3
  %25 = tail call noundef ptr @_ZN7QString16fromAscii_helperEPKci(ptr noundef nonnull @.str.29, i32 noundef 24)
  br label %40

26:                                               ; preds = %3
  %27 = tail call noundef ptr @_ZN7QString16fromAscii_helperEPKci(ptr noundef nonnull @.str.30, i32 noundef 45)
  br label %40

28:                                               ; preds = %3
  %29 = tail call noundef ptr @_ZN7QString16fromAscii_helperEPKci(ptr noundef nonnull @.str.31, i32 noundef 43)
  br label %40

30:                                               ; preds = %3
  %31 = tail call noundef ptr @_ZN7QString16fromAscii_helperEPKci(ptr noundef nonnull @.str.32, i32 noundef 44)
  br label %40

32:                                               ; preds = %3
  %33 = tail call noundef ptr @_ZN7QString16fromAscii_helperEPKci(ptr noundef nonnull @.str.33, i32 noundef 42)
  br label %40

34:                                               ; preds = %3
  %35 = tail call noundef ptr @_ZN7QString16fromAscii_helperEPKci(ptr noundef nonnull @.str.34, i32 noundef 14)
  br label %40

36:                                               ; preds = %3
  %37 = tail call noundef ptr @_ZN7QString16fromAscii_helperEPKci(ptr noundef nonnull @.str.35, i32 noundef 19)
  br label %40

38:                                               ; preds = %3
  %39 = tail call noundef ptr @_ZN7QString16fromAscii_helperEPKci(ptr noundef nonnull @.str.36, i32 noundef 16)
  br label %40

40:                                               ; preds = %3, %38, %36, %34, %32, %30, %28, %26, %24, %22, %20, %18, %16, %14, %12, %10, %8, %6, %4
  %_ZN10QArrayData11shared_nullE.sink = phi ptr [ %39, %38 ], [ %37, %36 ], [ %35, %34 ], [ %33, %32 ], [ %31, %30 ], [ %29, %28 ], [ %27, %26 ], [ %25, %24 ], [ %23, %22 ], [ %21, %20 ], [ %19, %18 ], [ %17, %16 ], [ %15, %14 ], [ %13, %12 ], [ %11, %10 ], [ %9, %8 ], [ %7, %6 ], [ %5, %4 ], [ @_ZN10QArrayData11shared_nullE, %3 ]
  store ptr %_ZN10QArrayData11shared_nullE.sink, ptr %0, align 8
  ret void
}